target datalayout = "e-m:e-p270:32:32-p271:32:32-p272:64:64-i64:64-i128:128-f80:128-n8:16:32:64-S128"
target triple = "x86_64-pc-linux-gnu"

%struct.AVCodecContext = type { ptr, i32, i32, ptr, i32, i32, ptr, ptr, ptr, i64, i32, i32, ptr, i32, %struct.AVRational, %struct.AVRational, %struct.AVRational, i32, i32, i32, i32, i32, %struct.AVRational, i32, i32, i32, i32, i32, i32, i32, i32, i32, i32, i32, ptr, ptr, i32, float, float, float, float, float, float, float, float, float, i32, i32, i32, i32, i32, i32, i32, i32, i32, i32, i32, i32, ptr, ptr, ptr, i32, i32, i32, i32, i32, i32, i32, i32, i32, i32, %struct.AVChannelLayout, i32, i32, i32, i32, i32, i32, i32, i32, ptr, i32, i32, i32, float, float, i32, i32, i32, i32, i32, ptr, i64, i64, float, float, i32, i32, ptr, ptr, i32, i32, i32, i32, i32, ptr, ptr, ptr, ptr, i32, i32, [8 x i64], i32, i32, i32, i32, i32, i32, i32, ptr, ptr, i32, i32, i32, i32, i32, i32, i32, i32, i32, i32, ptr, ptr, i32, i32, ptr, ptr, ptr, ptr, i32, i32, i64, i32, i32, i64, ptr, i64, ptr, i32, ptr, i32 }
%struct.AVRational = type { i32, i32 }
%struct.AVChannelLayout = type { i32, i32, %union.anon, ptr }
%union.anon = type { i64 }
%struct.FFPsyPreprocessContext = type { ptr, float, ptr, ptr, %struct.FFIIRFilterContext }
%struct.FFIIRFilterContext = type { ptr }

; Function Attrs: nounwind uwtable
define void @ff_psy_preprocess(ptr noundef %0, ptr noundef %1, i32 noundef %2) #4 {
  %4 = alloca ptr, align 8
  %5 = alloca ptr, align 8
  %6 = alloca i32, align 4
  %7 = alloca i32, align 4
  %8 = alloca i32, align 4
  %9 = alloca ptr, align 8
  store ptr %0, ptr %4, align 8, !tbaa !62
  store ptr %1, ptr %5, align 8, !tbaa !75
  store i32 %2, ptr %6, align 4, !tbaa !11
  call void @llvm.lifetime.start.p0(i64 4, ptr %7) #5
  call void @llvm.lifetime.start.p0(i64 4, ptr %8) #5
  %10 = load ptr, ptr %4, align 8, !tbaa !62
  %11 = getelementptr inbounds nuw %struct.FFPsyPreprocessContext, ptr %10, i32 0, i32 0
  %12 = load ptr, ptr %11, align 8, !tbaa !64
  %13 = getelementptr inbounds nuw %struct.AVCodecContext, ptr %12, i32 0, i32 72
  %14 = load i32, ptr %13, align 8, !tbaa !77
  store i32 %14, ptr %8, align 4, !tbaa !11
  call void @llvm.lifetime.start.p0(i64 8, ptr %9) #5
  %15 = load ptr, ptr %4, align 8, !tbaa !62
  %16 = getelementptr inbounds nuw %struct.FFPsyPreprocessContext, ptr %15, i32 0, i32 4
  store ptr %16, ptr %9, align 8, !tbaa !78
  %17 = load ptr, ptr %4, align 8, !tbaa !62
  %18 = getelementptr inbounds nuw %struct.FFPsyPreprocessContext, ptr %17, i32 0, i32 3
  %19 = load ptr, ptr %18, align 8, !tbaa !71
  %20 = icmp ne ptr %19, null
  br i1 %20, label %21, label %61

21:                                               ; preds = %3
  store i32 0, ptr %7, align 4, !tbaa !11
  br label %22

22:                                               ; preds = %57, %21
  %23 = load i32, ptr %7, align 4, !tbaa !11
  %24 = load i32, ptr %6, align 4, !tbaa !11
  %25 = icmp slt i32 %23, %24
  br i1 %25, label %26, label %60

26:                                               ; preds = %22
  %27 = load ptr, ptr %9, align 8, !tbaa !78
  %28 = getelementptr inbounds nuw %struct.FFIIRFilterContext, ptr %27, i32 0, i32 0
  %29 = load ptr, ptr %28, align 8, !tbaa !80
  %30 = load ptr, ptr %4, align 8, !tbaa !62
  %31 = getelementptr inbounds nuw %struct.FFPsyPreprocessContext, ptr %30, i32 0, i32 2
  %32 = load ptr, ptr %31, align 8, !tbaa !70
  %33 = load ptr, ptr %4, align 8, !tbaa !62
  %34 = getelementptr inbounds nuw %struct.FFPsyPreprocessContext, ptr %33, i32 0, i32 3
  %35 = load ptr, ptr %34, align 8, !tbaa !71
  %36 = load i32, ptr %7, align 4, !tbaa !11
  %37 = sext i32 %36 to i64
  %38 = getelementptr inbounds ptr, ptr %35, i64 %37
  %39 = load ptr, ptr %38, align 8, !tbaa !72
  %40 = load i32, ptr %8, align 4, !tbaa !11
  %41 = load ptr, ptr %5, align 8, !tbaa !75
  %42 = load i32, ptr %7, align 4, !tbaa !11
  %43 = sext i32 %42 to i64
  %44 = getelementptr inbounds ptr, ptr %41, i64 %43
  %45 = load ptr, ptr %44, align 8, !tbaa !81
  %46 = load i32, ptr %8, align 4, !tbaa !11
  %47 = sext i32 %46 to i64
  %48 = getelementptr inbounds float, ptr %45, i64 %47
  %49 = load ptr, ptr %5, align 8, !tbaa !75
  %50 = load i32, ptr %7, align 4, !tbaa !11
  %51 = sext i32 %50 to i64
  %52 = getelementptr inbounds ptr, ptr %49, i64 %51
  %53 = load ptr, ptr %52, align 8, !tbaa !81
  %54 = load i32, ptr %8, align 4, !tbaa !11
  %55 = sext i32 %54 to i64
  %56 = getelementptr inbounds float, ptr %53, i64 %55
  call void %29(ptr noundef %32, ptr noundef %39, i32 noundef %40, ptr noundef %48, i64 noundef 1, ptr noundef %56, i64 noundef 1)
  br label %57

57:                                               ; preds = %26
  %58 = load i32, ptr %7, align 4, !tbaa !11
  %59 = add nsw i32 %58, 1
  store i32 %59, ptr %7, align 4, !tbaa !11
  br label %22, !llvm.loop !83

60:                                               ; preds = %22
  br label %61

61:                                               ; preds = %60, %3
  call void @llvm.lifetime.end.p0(i64 8, ptr %9) #5
  call void @llvm.lifetime.end.p0(i64 4, ptr %8) #5
  call void @llvm.lifetime.end.p0(i64 4, ptr %7) #5
  ret void
}