; Function Attrs: nounwind uwtable
define void @ff_psy_preprocess(ptr noundef readonly captures(none) %0, ptr noundef readonly captures(none) %1, i32 noundef %2) local_unnamed_addr #4 {
  %4 = load ptr, ptr %0, align 8, !tbaa !54
  %5 = getelementptr inbounds nuw i8, ptr %4, i64 376
  %6 = load i32, ptr %5, align 8, !tbaa !65
  %7 = getelementptr inbounds nuw i8, ptr %0, i64 32
  %8 = getelementptr inbounds nuw i8, ptr %0, i64 24
  %9 = load ptr, ptr %8, align 8, !tbaa !61
  %.not = icmp ne ptr %9, null
  %10 = icmp sgt i32 %2, 0
  %or.cond = and i1 %.not, %10
  br i1 %or.cond, label %.lr.ph, label %.loopexit

.lr.ph:                                           ; preds = %3
  %11 = getelementptr inbounds nuw i8, ptr %0, i64 16
  %12 = sext i32 %6 to i64
  %wide.trip.count = zext nneg i32 %2 to i64
  br label %13

13:                                               ; preds = %.lr.ph, %13
  %indvars.iv = phi i64 [ 0, %.lr.ph ], [ %indvars.iv.next, %13 ]
  %14 = load ptr, ptr %7, align 8, !tbaa !66
  %15 = load ptr, ptr %11, align 8, !tbaa !60
  %16 = load ptr, ptr %8, align 8, !tbaa !61
  %17 = getelementptr inbounds nuw ptr, ptr %16, i64 %indvars.iv
  %18 = load ptr, ptr %17, align 8, !tbaa !62
  %19 = getelementptr inbounds nuw ptr, ptr %1, i64 %indvars.iv
  %20 = load ptr, ptr %19, align 8, !tbaa !67
  %21 = getelementptr inbounds float, ptr %20, i64 %12
  tail call void %14(ptr noundef %15, ptr noundef %18, i32 noundef %6, ptr noundef %21, i64 noundef 1, ptr noundef %21, i64 noundef 1) #5
  %indvars.iv.next = add nuw nsw i64 %indvars.iv, 1
  %exitcond.not = icmp eq i64 %indvars.iv.next, %wide.trip.count
  br i1 %exitcond.not, label %.loopexit, label %13, !llvm.loop !69

.loopexit:                                        ; preds = %13, %3
  ret void
}